; ModuleID = '52/4154.c'
source_filename = "52/4154.c"
target datalayout = "e-m:e-p270:32:32-p271:32:32-p272:64:64-i64:64-f80:128-n8:16:32:64-S128"
target triple = "x86_64-pc-linux-gnu"

%struct.node = type { i32, %struct.node* }

@.str = private unnamed_addr constant [5 x i8] c"%d%d\00", align 1
@.str.1 = private unnamed_addr constant [3 x i8] c"%d\00", align 1
@.str.2 = private unnamed_addr constant [4 x i8] c" %d\00", align 1

; Function Attrs: noinline nounwind uwtable
define dso_local void @main() #0 {
  %1 = alloca i32, align 4
  %2 = alloca i32, align 4
  %3 = alloca i32, align 4
  %4 = alloca i32, align 4
  %5 = alloca %struct.node*, align 8
  %6 = alloca %struct.node*, align 8
  %7 = alloca %struct.node*, align 8
  store %struct.node* null, %struct.node** %5, align 8
  store %struct.node* null, %struct.node** %7, align 8
  %8 = call i32 (i8*, ...) @__isoc99_scanf(i8* getelementptr inbounds ([5 x i8], [5 x i8]* @.str, i64 0, i64 0), i32* %2, i32* %1)
  %9 = call noalias i8* @malloc(i64 16) #3
  %10 = bitcast i8* %9 to %struct.node*
  store %struct.node* %10, %struct.node** %5, align 8
  %11 = load %struct.node*, %struct.node** %5, align 8
  %12 = getelementptr inbounds %struct.node, %struct.node* %11, i32 0, i32 0
  %13 = call i32 (i8*, ...) @__isoc99_scanf(i8* getelementptr inbounds ([3 x i8], [3 x i8]* @.str.1, i64 0, i64 0), i32* %12)
  %14 = load %struct.node*, %struct.node** %5, align 8
  %15 = load %struct.node*, %struct.node** %5, align 8
  %16 = getelementptr inbounds %struct.node, %struct.node* %15, i32 0, i32 1
  store %struct.node* %14, %struct.node** %16, align 8
  %17 = load %struct.node*, %struct.node** %5, align 8
  store %struct.node* %17, %struct.node** %7, align 8
  store i32 1, i32* %3, align 4
  br label %18

18:                                               ; preds = %36, %0
  %19 = load i32, i32* %3, align 4
  %20 = load i32, i32* %2, align 4
  %21 = icmp slt i32 %19, %20
  br i1 %21, label %22, label %39

22:                                               ; preds = %18
  %23 = call i32 (i8*, ...) @__isoc99_scanf(i8* getelementptr inbounds ([3 x i8], [3 x i8]* @.str.1, i64 0, i64 0), i32* %4)
  %24 = call noalias i8* @malloc(i64 16) #3
  %25 = bitcast i8* %24 to %struct.node*
  store %struct.node* %25, %struct.node** %6, align 8
  %26 = load i32, i32* %4, align 4
  %27 = load %struct.node*, %struct.node** %6, align 8
  %28 = getelementptr inbounds %struct.node, %struct.node* %27, i32 0, i32 0
  store i32 %26, i32* %28, align 8
  %29 = load %struct.node*, %struct.node** %6, align 8
  %30 = load %struct.node*, %struct.node** %7, align 8
  %31 = getelementptr inbounds %struct.node, %struct.node* %30, i32 0, i32 1
  store %struct.node* %29, %struct.node** %31, align 8
  %32 = load %struct.node*, %struct.node** %5, align 8
  %33 = load %struct.node*, %struct.node** %6, align 8
  %34 = getelementptr inbounds %struct.node, %struct.node* %33, i32 0, i32 1
  store %struct.node* %32, %struct.node** %34, align 8
  %35 = load %struct.node*, %struct.node** %6, align 8
  store %struct.node* %35, %struct.node** %7, align 8
  br label %36

36:                                               ; preds = %22
  %37 = load i32, i32* %3, align 4
  %38 = add nsw i32 %37, 1
  store i32 %38, i32* %3, align 4
  br label %18

39:                                               ; preds = %18
  store i32 0, i32* %3, align 4
  br label %40

40:                                               ; preds = %52, %39
  %41 = load i32, i32* %3, align 4
  %42 = load i32, i32* %2, align 4
  %43 = load i32, i32* %1, align 4
  %44 = load i32, i32* %2, align 4
  %45 = srem i32 %43, %44
  %46 = sub nsw i32 %42, %45
  %47 = icmp slt i32 %41, %46
  br i1 %47, label %48, label %55

48:                                               ; preds = %40
  %49 = load %struct.node*, %struct.node** %5, align 8
  %50 = getelementptr inbounds %struct.node, %struct.node* %49, i32 0, i32 1
  %51 = load %struct.node*, %struct.node** %50, align 8
  store %struct.node* %51, %struct.node** %5, align 8
  br label %52

52:                                               ; preds = %48
  %53 = load i32, i32* %3, align 4
  %54 = add nsw i32 %53, 1
  store i32 %54, i32* %3, align 4
  br label %40

55:                                               ; preds = %40
  %56 = load %struct.node*, %struct.node** %5, align 8
  %57 = getelementptr inbounds %struct.node, %struct.node* %56, i32 0, i32 0
  %58 = load i32, i32* %57, align 8
  %59 = call i32 (i8*, ...) @printf(i8* getelementptr inbounds ([3 x i8], [3 x i8]* @.str.1, i64 0, i64 0), i32 %58)
  store i32 1, i32* %3, align 4
  br label %60

60:                                               ; preds = %72, %55
  %61 = load i32, i32* %3, align 4
  %62 = load i32, i32* %2, align 4
  %63 = icmp slt i32 %61, %62
  br i1 %63, label %64, label %75

64:                                               ; preds = %60
  %65 = load %struct.node*, %struct.node** %5, align 8
  %66 = getelementptr inbounds %struct.node, %struct.node* %65, i32 0, i32 1
  %67 = load %struct.node*, %struct.node** %66, align 8
  store %struct.node* %67, %struct.node** %5, align 8
  %68 = load %struct.node*, %struct.node** %5, align 8
  %69 = getelementptr inbounds %struct.node, %struct.node* %68, i32 0, i32 0
  %70 = load i32, i32* %69, align 8
  %71 = call i32 (i8*, ...) @printf(i8* getelementptr inbounds ([4 x i8], [4 x i8]* @.str.2, i64 0, i64 0), i32 %70)
  br label %72

72:                                               ; preds = %64
  %73 = load i32, i32* %3, align 4
  %74 = add nsw i32 %73, 1
  store i32 %74, i32* %3, align 4
  br label %60

75:                                               ; preds = %60
  ret void
}

declare dso_local i32 @__isoc99_scanf(i8*, ...) #1

; Function Attrs: nounwind
declare dso_local noalias i8* @malloc(i64) #2

declare dso_local i32 @printf(i8*, ...) #1


!llvm.module.flags = !{!0}
!llvm.ident = !{!1}

!0 = !{i32 1, !"wchar_size", i32 4}
!1 = !{!"clang version 10.0.0-4ubuntu1 "}
